	.file	"matmul.c"
	.option nopic
	.attribute arch, "rv32i2p0"
	.attribute unaligned_access, 0
	.attribute stack_align, 16
	.text
.Ltext0:
	.cfi_sections	.debug_frame
	.file 0 "/home/ubuntu/Desktop/project/testbench/uart" "matmul.c"
	.section	.mprjram,"ax",@progbits
	.align	2
	.globl	matmul
	.type	matmul, @function
matmul:
.LFB0:
	.file 1 "matmul.c"
	.loc 1 8 1
	.cfi_startproc
	.loc 1 26 2
	.loc 1 29 43 is_stmt 0
	lui	a4,%hi(.LANCHOR0)
	addi	a4,a4,%lo(.LANCHOR0)
	lw	a2,0(a4)
	.loc 1 8 1
	addi	sp,sp,-16
	.cfi_def_cfa_offset 16
	sw	s0,12(sp)
	sw	s1,8(sp)
	sw	s2,4(sp)
	.cfi_offset 8, -4
	.cfi_offset 9, -8
	.cfi_offset 18, -12
	.loc 1 29 43
	lw	a0,4(a4)
	.loc 1 26 36
	li	a3,637534208
	li	a5,-1423966208
	.loc 1 29 43
	lw	a1,8(a4)
	.loc 1 26 36
	sw	a5,12(a3)
	.loc 1 27 2 is_stmt 1
	.loc 1 28 2
.LVL0:
	.loc 1 28 13
	.loc 1 29 3
	.loc 1 29 37 is_stmt 0
	li	a5,942669824
	sw	a2,0(a5)
	.loc 1 28 20 is_stmt 1
.LVL1:
	.loc 1 28 13
	.loc 1 29 3
	.loc 1 29 43 is_stmt 0
	lw	a2,12(a4)
	.loc 1 29 37
	sw	a0,0(a5)
	.loc 1 28 20 is_stmt 1
.LVL2:
	.loc 1 28 13
	.loc 1 29 3
	.loc 1 29 43 is_stmt 0
	lw	a0,16(a4)
	.loc 1 29 37
	sw	a1,0(a5)
	.loc 1 28 20 is_stmt 1
.LVL3:
	.loc 1 28 13
	.loc 1 29 3
	.loc 1 29 43 is_stmt 0
	lw	a1,20(a4)
	.loc 1 29 37
	sw	a2,0(a5)
	.loc 1 28 20 is_stmt 1
.LVL4:
	.loc 1 28 13
	.loc 1 29 3
	.loc 1 29 43 is_stmt 0
	lw	a2,24(a4)
	.loc 1 29 37
	sw	a0,0(a5)
	.loc 1 28 20 is_stmt 1
.LVL5:
	.loc 1 28 13
	.loc 1 29 3
	.loc 1 29 43 is_stmt 0
	lw	a0,28(a4)
	.loc 1 29 37
	sw	a1,0(a5)
	.loc 1 28 20 is_stmt 1
.LVL6:
	.loc 1 28 13
	.loc 1 29 3
	.loc 1 29 43 is_stmt 0
	lw	a1,32(a4)
	.loc 1 29 37
	sw	a2,0(a5)
	.loc 1 28 20 is_stmt 1
.LVL7:
	.loc 1 28 13
	.loc 1 29 3
	.loc 1 29 43 is_stmt 0
	lw	a2,36(a4)
	.loc 1 29 37
	sw	a0,0(a5)
	.loc 1 28 20 is_stmt 1
.LVL8:
	.loc 1 28 13
	.loc 1 29 3
	.loc 1 29 43 is_stmt 0
	lw	a0,40(a4)
	.loc 1 29 37
	sw	a1,0(a5)
	.loc 1 28 20 is_stmt 1
.LVL9:
	.loc 1 28 13
	.loc 1 29 3
	.loc 1 29 43 is_stmt 0
	lw	a1,44(a4)
	.loc 1 29 37
	sw	a2,0(a5)
	.loc 1 28 20 is_stmt 1
.LVL10:
	.loc 1 28 13
	.loc 1 29 3
	.loc 1 29 43 is_stmt 0
	lw	a2,48(a4)
	.loc 1 29 37
	sw	a0,0(a5)
	.loc 1 28 20 is_stmt 1
.LVL11:
	.loc 1 28 13
	.loc 1 29 3
	.loc 1 29 43 is_stmt 0
	lw	a0,52(a4)
	.loc 1 29 37
	sw	a1,0(a5)
	.loc 1 28 20 is_stmt 1
.LVL12:
	.loc 1 28 13
	.loc 1 29 3
	.loc 1 29 43 is_stmt 0
	lw	a1,56(a4)
	.loc 1 29 37
	sw	a2,0(a5)
	.loc 1 28 20 is_stmt 1
.LVL13:
	.loc 1 28 13
	.loc 1 29 3
	.loc 1 29 43 is_stmt 0
	lw	a2,60(a4)
	.loc 1 29 37
	sw	a0,0(a5)
	.loc 1 28 20 is_stmt 1
.LVL14:
	.loc 1 28 13
	.loc 1 29 3
	.loc 1 32 43 is_stmt 0
	lw	a0,64(a4)
	.loc 1 29 37
	sw	a1,0(a5)
	.loc 1 28 20 is_stmt 1
.LVL15:
	.loc 1 28 13
	.loc 1 29 3
	.loc 1 32 43 is_stmt 0
	lw	a1,68(a4)
	.loc 1 29 37
	sw	a2,0(a5)
	.loc 1 28 20 is_stmt 1
.LVL16:
	.loc 1 28 13
	.loc 1 32 3
	.loc 1 32 43 is_stmt 0
	lw	a2,72(a4)
	.loc 1 32 37
	sw	a0,0(a5)
	.loc 1 31 20 is_stmt 1
.LVL17:
	.loc 1 31 13
	.loc 1 32 3
	.loc 1 32 43 is_stmt 0
	lw	a0,76(a4)
	.loc 1 32 37
	sw	a1,0(a5)
	.loc 1 31 20 is_stmt 1
.LVL18:
	.loc 1 31 13
	.loc 1 32 3
	.loc 1 32 43 is_stmt 0
	lw	a1,80(a4)
	.loc 1 32 37
	sw	a2,0(a5)
	.loc 1 31 20 is_stmt 1
.LVL19:
	.loc 1 31 13
	.loc 1 32 3
	.loc 1 32 43 is_stmt 0
	lw	a2,84(a4)
	.loc 1 32 37
	sw	a0,0(a5)
	.loc 1 31 20 is_stmt 1
.LVL20:
	.loc 1 31 13
	.loc 1 32 3
	.loc 1 32 43 is_stmt 0
	lw	a0,88(a4)
	.loc 1 32 37
	sw	a1,0(a5)
	.loc 1 31 20 is_stmt 1
.LVL21:
	.loc 1 31 13
	.loc 1 32 3
	.loc 1 32 43 is_stmt 0
	lw	a1,92(a4)
	.loc 1 32 37
	sw	a2,0(a5)
	.loc 1 31 20 is_stmt 1
.LVL22:
	.loc 1 31 13
	.loc 1 32 3
	.loc 1 32 43 is_stmt 0
	lw	a2,96(a4)
	.loc 1 32 37
	sw	a0,0(a5)
	.loc 1 31 20 is_stmt 1
.LVL23:
	.loc 1 31 13
	.loc 1 32 3
	.loc 1 32 43 is_stmt 0
	lw	a0,100(a4)
	.loc 1 32 37
	sw	a1,0(a5)
	.loc 1 31 20 is_stmt 1
.LVL24:
	.loc 1 31 13
	.loc 1 32 3
	.loc 1 32 43 is_stmt 0
	lw	a1,104(a4)
	.loc 1 32 37
	sw	a2,0(a5)
	.loc 1 31 20 is_stmt 1
.LVL25:
	.loc 1 31 13
	.loc 1 32 3
	.loc 1 32 43 is_stmt 0
	lw	a2,108(a4)
	.loc 1 32 37
	sw	a0,0(a5)
	.loc 1 31 20 is_stmt 1
.LVL26:
	.loc 1 31 13
	.loc 1 32 3
	.loc 1 32 43 is_stmt 0
	lw	a0,112(a4)
	.loc 1 32 37
	sw	a1,0(a5)
	.loc 1 31 20 is_stmt 1
.LVL27:
	.loc 1 31 13
	.loc 1 32 3
	.loc 1 32 43 is_stmt 0
	lw	a1,116(a4)
	.loc 1 32 37
	sw	a2,0(a5)
	.loc 1 31 20 is_stmt 1
.LVL28:
	.loc 1 31 13
	.loc 1 32 3
	.loc 1 32 43 is_stmt 0
	lw	a2,120(a4)
	.loc 1 32 37
	sw	a0,0(a5)
	.loc 1 31 20 is_stmt 1
.LVL29:
	.loc 1 31 13
	.loc 1 32 3
	.loc 1 32 43 is_stmt 0
	lw	a4,124(a4)
	.loc 1 32 37
	sw	a1,0(a5)
	.loc 1 31 20 is_stmt 1
.LVL30:
	.loc 1 31 13
	.loc 1 32 3
	.loc 1 32 37 is_stmt 0
	sw	a2,0(a5)
	.loc 1 31 20 is_stmt 1
.LVL31:
	.loc 1 31 13
	.loc 1 32 3
	.loc 1 32 37 is_stmt 0
	sw	a4,0(a5)
	.loc 1 31 20 is_stmt 1
.LVL32:
	.loc 1 31 13
	.loc 1 36 3
	.loc 1 36 16 is_stmt 0
	lw	a2,16(a5)
	.loc 1 36 13
	lui	a0,%hi(.LANCHOR1)
	.loc 1 36 16
	lw	s2,16(a5)
	lw	s1,16(a5)
	lw	s0,16(a5)
	lw	t2,16(a5)
	lw	t0,16(a5)
	lw	t6,16(a5)
	lw	t5,16(a5)
	lw	t4,16(a5)
	lw	t3,16(a5)
	lw	t1,16(a5)
	lw	a7,16(a5)
	.loc 1 36 13
	addi	a4,a0,%lo(.LANCHOR1)
	.loc 1 36 16
	lw	a6,16(a5)
	.loc 1 36 13
	sw	a2,0(a4)
	.loc 1 35 17 is_stmt 1
.LVL33:
	.loc 1 35 11
	.loc 1 36 3
	.loc 1 36 16 is_stmt 0
	lw	a1,16(a5)
	lw	a2,16(a5)
	lw	a5,16(a5)
	.loc 1 36 13
	sw	s2,4(a4)
	.loc 1 35 17 is_stmt 1
.LVL34:
	.loc 1 35 11
	.loc 1 36 3
	.loc 1 36 13 is_stmt 0
	sw	s1,8(a4)
	.loc 1 35 17 is_stmt 1
.LVL35:
	.loc 1 35 11
	.loc 1 36 3
	.loc 1 36 13 is_stmt 0
	sw	s0,12(a4)
	.loc 1 35 17 is_stmt 1
.LVL36:
	.loc 1 35 11
	.loc 1 36 3
	.loc 1 36 13 is_stmt 0
	sw	t2,16(a4)
	.loc 1 35 17 is_stmt 1
.LVL37:
	.loc 1 35 11
	.loc 1 36 3
	.loc 1 36 13 is_stmt 0
	sw	t0,20(a4)
	.loc 1 35 17 is_stmt 1
.LVL38:
	.loc 1 35 11
	.loc 1 36 3
	.loc 1 36 13 is_stmt 0
	sw	t6,24(a4)
	.loc 1 35 17 is_stmt 1
.LVL39:
	.loc 1 35 11
	.loc 1 36 3
	.loc 1 36 13 is_stmt 0
	sw	t5,28(a4)
	.loc 1 35 17 is_stmt 1
.LVL40:
	.loc 1 35 11
	.loc 1 36 3
	.loc 1 36 13 is_stmt 0
	sw	t4,32(a4)
	.loc 1 35 17 is_stmt 1
.LVL41:
	.loc 1 35 11
	.loc 1 36 3
	.loc 1 36 13 is_stmt 0
	sw	t3,36(a4)
	.loc 1 35 17 is_stmt 1
.LVL42:
	.loc 1 35 11
	.loc 1 36 3
	.loc 1 36 13 is_stmt 0
	sw	t1,40(a4)
	.loc 1 35 17 is_stmt 1
.LVL43:
	.loc 1 35 11
	.loc 1 36 3
	.loc 1 36 13 is_stmt 0
	sw	a7,44(a4)
	.loc 1 35 17 is_stmt 1
.LVL44:
	.loc 1 35 11
	.loc 1 36 3
	.loc 1 36 13 is_stmt 0
	sw	a6,48(a4)
	.loc 1 35 17 is_stmt 1
.LVL45:
	.loc 1 35 11
	.loc 1 36 3
	.loc 1 40 1 is_stmt 0
	lw	s0,12(sp)
	.cfi_restore 8
	.loc 1 36 13
	sw	a5,60(a4)
	sw	a1,52(a4)
	.loc 1 35 17 is_stmt 1
.LVL46:
	.loc 1 35 11
	.loc 1 36 3
	.loc 1 36 13 is_stmt 0
	sw	a2,56(a4)
	.loc 1 35 17 is_stmt 1
.LVL47:
	.loc 1 35 11
	.loc 1 36 3
	.loc 1 35 17
	.loc 1 35 11
	.loc 1 38 2
	.loc 1 38 36 is_stmt 0
	li	a5,-1422983168
	sw	a5,12(a3)
	.loc 1 39 2 is_stmt 1
	.loc 1 40 1 is_stmt 0
	lw	s1,8(sp)
	.cfi_restore 9
	lw	s2,4(sp)
	.cfi_restore 18
	addi	a0,a0,%lo(.LANCHOR1)
	addi	sp,sp,16
	.cfi_def_cfa_offset 0
	jr	ra
	.cfi_endproc
.LFE0:
	.size	matmul, .-matmul
	.globl	result
	.globl	Matx
	.globl	MatB
	.globl	MatA
	.data
	.align	2
	.set	.LANCHOR0,. + 0
	.type	MatB, @object
	.size	MatB, 64
MatB:
	.word	1
	.word	2
	.word	3
	.word	4
	.word	5
	.word	6
	.word	7
	.word	8
	.word	9
	.word	10
	.word	11
	.word	12
	.word	13
	.word	14
	.word	15
	.word	16
	.type	MatA, @object
	.size	MatA, 64
MatA:
	.word	0
	.word	1
	.word	2
	.word	3
	.word	0
	.word	1
	.word	2
	.word	3
	.word	0
	.word	1
	.word	2
	.word	3
	.word	0
	.word	1
	.word	2
	.word	3
	.type	Matx, @object
	.size	Matx, 128
Matx:
	.word	1
	.word	2
	.word	3
	.word	4
	.word	5
	.word	6
	.word	7
	.word	8
	.word	9
	.word	10
	.word	11
	.word	12
	.word	13
	.word	14
	.word	15
	.word	16
	.word	0
	.word	1
	.word	2
	.word	3
	.word	0
	.word	1
	.word	2
	.word	3
	.word	0
	.word	1
	.word	2
	.word	3
	.word	0
	.word	1
	.word	2
	.word	3
	.bss
	.align	2
	.set	.LANCHOR1,. + 0
	.type	result, @object
	.size	result, 64
result:
	.zero	64
	.text
.Letext0:
	.file 2 "matmul.h"
	.file 3 "/opt/riscv/lib/gcc/riscv32-unknown-elf/12.1.0/include/stdint-gcc.h"